target datalayout = "e-m:e-p270:32:32-p271:32:32-p272:64:64-i64:64-i128:128-f80:128-n8:16:32:64-S128"
target triple = "x86_64-pc-linux-gnu"

%union.SourceSpan = type { i64 }
%struct.GenContext_ = type { i8, ptr, ptr, ptr, ptr, ptr, ptr, ptr, ptr, ptr, ptr, ptr, ptr, ptr, ptr, ptr, ptr, ptr, ptr, ptr, ptr, ptr, ptr, ptr, ptr, ptr, ptr, ptr, ptr, ptr, ptr, ptr, ptr, %struct.anon.85, i32, i32, %struct.DebugContext, ptr, ptr, ptr, %struct.BEValue, i8, %union.SourceSpan, ptr, ptr, ptr, ptr }
%struct.anon.85 = type { ptr, ptr, ptr }
%struct.DebugContext = type { i16, ptr, ptr, %struct.DebugFile_, ptr, ptr, ptr, ptr }
%struct.DebugFile_ = type { i16, ptr }
%struct.BEValue = type { i8, i32, ptr, ptr, ptr }

; Function Attrs: nounwind uwtable
define dso_local ptr @llvm_emit_alloca(ptr noundef %0, ptr noundef %1, i32 noundef %2, ptr noundef %3) #0 {
  %5 = alloca ptr, align 8
  %6 = alloca i32, align 4
  %7 = alloca ptr, align 8
  %8 = alloca ptr, align 8
  %9 = alloca i32, align 4
  %10 = alloca ptr, align 8
  %11 = alloca ptr, align 8
  %12 = alloca ptr, align 8
  store ptr %0, ptr %7, align 8
  store ptr %1, ptr %8, align 8
  store i32 %2, ptr %9, align 4
  store ptr %3, ptr %10, align 8
  %13 = load ptr, ptr %7, align 8
  %14 = getelementptr inbounds %struct.GenContext_, ptr %13, i32 0, i32 8
  %15 = load ptr, ptr %14, align 8
  %16 = call ptr @LLVMGetInsertBlock(ptr noundef %15)
  store ptr %16, ptr %11, align 8
  %17 = load ptr, ptr %7, align 8
  %18 = getelementptr inbounds %struct.GenContext_, ptr %17, i32 0, i32 8
  %19 = load ptr, ptr %18, align 8
  %20 = load ptr, ptr %7, align 8
  %21 = getelementptr inbounds %struct.GenContext_, ptr %20, i32 0, i32 7
  %22 = load ptr, ptr %21, align 8
  call void @LLVMPositionBuilderBefore(ptr noundef %19, ptr noundef %22)
  %23 = load ptr, ptr %7, align 8
  %24 = getelementptr inbounds %struct.GenContext_, ptr %23, i32 0, i32 8
  %25 = load ptr, ptr %24, align 8
  %26 = load ptr, ptr %8, align 8
  %27 = load ptr, ptr %10, align 8
  %28 = call ptr @LLVMBuildAlloca(ptr noundef %25, ptr noundef %26, ptr noundef %27)
  store ptr %28, ptr %12, align 8
  %29 = load ptr, ptr %12, align 8
  %30 = load i32, ptr %9, align 4
  store ptr %29, ptr %5, align 8
  store i32 %30, ptr %6, align 4
  %31 = load ptr, ptr %5, align 8
  %32 = load i32, ptr %6, align 4
  call void @LLVMSetAlignment(ptr noundef %31, i32 noundef %32) #7
  %33 = load ptr, ptr %7, align 8
  %34 = getelementptr inbounds %struct.GenContext_, ptr %33, i32 0, i32 8
  %35 = load ptr, ptr %34, align 8
  %36 = load ptr, ptr %11, align 8
  call void @LLVMPositionBuilderAtEnd(ptr noundef %35, ptr noundef %36)
  %37 = load ptr, ptr %12, align 8
  ret ptr %37
}