; Function Attrs: nounwind uwtable
define dso_local noundef ptr @llvm_emit_alloca(ptr nocapture noundef readonly %0, ptr noundef %1, i32 noundef %2, ptr noundef %3) local_unnamed_addr #0 {
  %5 = getelementptr inbounds i8, ptr %0, i64 64
  %6 = load ptr, ptr %5, align 8
  %7 = tail call ptr @LLVMGetInsertBlock(ptr noundef %6) #10
  %8 = load ptr, ptr %5, align 8
  %9 = getelementptr inbounds i8, ptr %0, i64 56
  %10 = load ptr, ptr %9, align 8
  tail call void @LLVMPositionBuilderBefore(ptr noundef %8, ptr noundef %10) #10
  %11 = load ptr, ptr %5, align 8
  %12 = tail call ptr @LLVMBuildAlloca(ptr noundef %11, ptr noundef %1, ptr noundef %3) #10
  tail call void @LLVMSetAlignment(ptr noundef %12, i32 noundef %2) #10
  %13 = load ptr, ptr %5, align 8
  tail call void @LLVMPositionBuilderAtEnd(ptr noundef %13, ptr noundef %7) #10
  ret ptr %12
}